target datalayout = "e-m:e-p270:32:32-p271:32:32-p272:64:64-i64:64-i128:128-f80:128-n8:16:32:64-S128"
target triple = "x86_64-unknown-linux-gnu"

%"class.OpenImageIO_v2_6_0::pvt::TextureSystemImpl" = type <{ %"class.OpenImageIO_v2_6_0::TextureSystem", ptr, i8, [3 x i8], %"class.Imath_2_5::Matrix44", %"class.Imath_2_5::Matrix44", i8, i8, [2 x i8], i32, i32, %"class.boost::thread_specific_ptr", %"class.std::unique_ptr", i32, [4 x i8] }>
%"class.OpenImageIO_v2_6_0::TextureSystem" = type { ptr }
%"class.Imath_2_5::Matrix44" = type { [4 x [4 x float]] }
%"class.boost::thread_specific_ptr" = type { ptr }
%"class.std::unique_ptr" = type { %"struct.std::__uniq_ptr_data" }
%"struct.std::__uniq_ptr_data" = type { %"class.std::__uniq_ptr_impl" }
%"class.std::__uniq_ptr_impl" = type { %"class.std::tuple" }
%"class.std::tuple" = type { %"struct.std::_Tuple_impl" }
%"struct.std::_Tuple_impl" = type { %"struct.std::_Head_base.3" }
%"struct.std::_Head_base.3" = type { ptr }

; Function Attrs: mustprogress nounwind uwtable
define linkonce_odr noundef nonnull align 4 dereferenceable(4) ptr @_ZSt3maxIiERKT_S2_S2_(ptr noundef nonnull align 4 dereferenceable(4) %__a, ptr noundef nonnull align 4 dereferenceable(4) %__b) #1 comdat {
entry:
  %retval = alloca ptr, align 8
  %__a.addr = alloca ptr, align 8
  %__b.addr = alloca ptr, align 8
  store ptr %__a, ptr %__a.addr, align 8
  store ptr %__b, ptr %__b.addr, align 8
  %0 = load ptr, ptr %__a.addr, align 8
  %1 = load i32, ptr %0, align 4
  %2 = load ptr, ptr %__b.addr, align 8
  %3 = load i32, ptr %2, align 4
  %cmp = icmp slt i32 %1, %3
  br i1 %cmp, label %if.then, label %if.end

if.then:                                          ; preds = %entry
  %4 = load ptr, ptr %__b.addr, align 8
  store ptr %4, ptr %retval, align 8
  br label %return

if.end:                                           ; preds = %entry
  %5 = load ptr, ptr %__a.addr, align 8
  store ptr %5, ptr %retval, align 8
  br label %return

return:                                           ; preds = %if.end, %if.then
  %6 = load ptr, ptr %retval, align 8
  ret ptr %6
}

; Function Attrs: mustprogress uwtable
define hidden noundef ptr @_ZN18OpenImageIO_v2_6_03pvt17TextureSystemImpl12resolve_udimEPNS_13TextureSystem13TextureHandleEPNS2_9PerthreadEff(ptr noundef nonnull align 8 dereferenceable(184) %this, ptr noundef %udimfile, ptr noundef %thread_info, float noundef %s, float noundef %t) unnamed_addr #7 align 2 {
entry:
  %this.addr = alloca ptr, align 8
  %udimfile.addr = alloca ptr, align 8
  %thread_info.addr = alloca ptr, align 8
  %s.addr = alloca float, align 4
  %t.addr = alloca float, align 4
  %utile = alloca i32, align 4
  %ref.tmp = alloca i32, align 4
  %ref.tmp2 = alloca i32, align 4
  %vtile = alloca i32, align 4
  %ref.tmp3 = alloca i32, align 4
  %ref.tmp4 = alloca i32, align 4
  store ptr %this, ptr %this.addr, align 8
  store ptr %udimfile, ptr %udimfile.addr, align 8
  store ptr %thread_info, ptr %thread_info.addr, align 8
  store float %s, ptr %s.addr, align 4
  store float %t, ptr %t.addr, align 4
  %this1 = load ptr, ptr %this.addr, align 8
  store i32 0, ptr %ref.tmp, align 4
  %0 = load float, ptr %s.addr, align 4
  %conv = fptosi float %0 to i32
  store i32 %conv, ptr %ref.tmp2, align 4
  %call = call noundef nonnull align 4 dereferenceable(4) ptr @_ZSt3maxIiERKT_S2_S2_(ptr noundef nonnull align 4 dereferenceable(4) %ref.tmp, ptr noundef nonnull align 4 dereferenceable(4) %ref.tmp2)
  %1 = load i32, ptr %call, align 4
  store i32 %1, ptr %utile, align 4
  store i32 0, ptr %ref.tmp3, align 4
  %2 = load float, ptr %t.addr, align 4
  %conv5 = fptosi float %2 to i32
  store i32 %conv5, ptr %ref.tmp4, align 4
  %call6 = call noundef nonnull align 4 dereferenceable(4) ptr @_ZSt3maxIiERKT_S2_S2_(ptr noundef nonnull align 4 dereferenceable(4) %ref.tmp3, ptr noundef nonnull align 4 dereferenceable(4) %ref.tmp4)
  %3 = load i32, ptr %call6, align 4
  store i32 %3, ptr %vtile, align 4
  %m_imagecache = getelementptr inbounds %"class.OpenImageIO_v2_6_0::pvt::TextureSystemImpl", ptr %this1, i32 0, i32 1
  %4 = load ptr, ptr %m_imagecache, align 8
  %5 = load ptr, ptr %udimfile.addr, align 8
  %6 = load ptr, ptr %thread_info.addr, align 8
  %7 = load i32, ptr %utile, align 4
  %8 = load i32, ptr %vtile, align 4
  %call7 = call noundef ptr @_ZN18OpenImageIO_v2_6_03pvt14ImageCacheImpl12resolve_udimEPNS0_14ImageCacheFileEPNS0_23ImageCachePerThreadInfoEii(ptr noundef nonnull align 64 dereferenceable(25280) %4, ptr noundef %5, ptr noundef %6, i32 noundef %7, i32 noundef %8)
  ret ptr %call7
}