; Function Attrs: mustprogress uwtable
define hidden noundef ptr @_ZN18OpenImageIO_v2_6_03pvt17TextureSystemImpl12resolve_udimEPNS_13TextureSystem13TextureHandleEPNS2_9PerthreadEff(ptr nocapture noundef nonnull readonly align 8 dereferenceable(184) %this, ptr noundef %udimfile, ptr noundef %thread_info, float noundef %s, float noundef %t) unnamed_addr #5 align 2 {
entry:
  %conv = fptosi float %s to i32
  %.sroa.speculated5 = tail call i32 @llvm.smax.i32(i32 %conv, i32 0)
  %conv5 = fptosi float %t to i32
  %.sroa.speculated = tail call i32 @llvm.smax.i32(i32 %conv5, i32 0)
  %m_imagecache = getelementptr inbounds i8, ptr %this, i64 8
  %0 = load ptr, ptr %m_imagecache, align 8
  %call7 = tail call noundef ptr @_ZN18OpenImageIO_v2_6_03pvt14ImageCacheImpl12resolve_udimEPNS0_14ImageCacheFileEPNS0_23ImageCachePerThreadInfoEii(ptr noundef nonnull align 64 dereferenceable(25280) %0, ptr noundef %udimfile, ptr noundef %thread_info, i32 noundef %.sroa.speculated5, i32 noundef %.sroa.speculated)
  ret ptr %call7
}